; Function Attrs: nounwind uwtable
define hidden void @phpdbg_print_opcodes_method(ptr noundef %0, ptr noundef %1) local_unnamed_addr #0 {
  %3 = alloca ptr, align 8
  call void @llvm.lifetime.start.p0(i64 8, ptr nonnull %3) #11
  %4 = tail call i64 @strlen(ptr noundef nonnull dereferenceable(1) %0) #13
  %5 = trunc i64 %4 to i32
  %6 = call i32 @phpdbg_safe_class_lookup(ptr noundef nonnull %0, i32 noundef %5, ptr noundef nonnull %3) #11
  %.not = icmp eq i32 %6, 0
  br i1 %.not, label %10, label %7

7:                                                ; preds = %2
  %8 = load i32, ptr getelementptr inbounds nuw (i8, ptr @phpdbg_globals, i64 1508), align 4, !tbaa !40
  %9 = call i32 (i32, i32, ptr, ...) @phpdbg_print(i32 noundef 1, i32 noundef %8, ptr noundef nonnull @.str.27, ptr noundef nonnull %0) #11
  br label %phpdbg_print_opcodes_method_ce.exit

10:                                               ; preds = %2
  %11 = load ptr, ptr %3, align 8, !tbaa !88
  %12 = load i8, ptr %11, align 8, !tbaa !89
  %.not.i = icmp eq i8 %12, 2
  br i1 %.not.i, label %19, label %13

13:                                               ; preds = %10
  %14 = load i32, ptr getelementptr inbounds nuw (i8, ptr @phpdbg_globals, i64 1508), align 4, !tbaa !40
  %15 = getelementptr inbounds nuw i8, ptr %11, i64 8
  %16 = load ptr, ptr %15, align 8, !tbaa !101
  %17 = getelementptr inbounds nuw i8, ptr %16, i64 24
  %18 = call i32 (i32, ptr, ...) @phpdbg_out_internal(i32 noundef %14, ptr noundef nonnull @.str.42, ptr noundef nonnull %17, ptr noundef %1) #11
  br label %phpdbg_print_opcodes_method_ce.exit

19:                                               ; preds = %10
  %20 = getelementptr inbounds nuw i8, ptr %11, i64 64
  %21 = call i64 @strlen(ptr noundef nonnull dereferenceable(1) %1) #13
  %22 = call ptr @zend_hash_str_find(ptr noundef nonnull %20, ptr noundef nonnull %1, i64 noundef %21) #11
  %.not.i.i = icmp eq ptr %22, null
  br i1 %.not.i.i, label %23, label %29

23:                                               ; preds = %19
  %24 = load i32, ptr getelementptr inbounds nuw (i8, ptr @phpdbg_globals, i64 1508), align 4, !tbaa !40
  %25 = getelementptr inbounds nuw i8, ptr %11, i64 8
  %26 = load ptr, ptr %25, align 8, !tbaa !101
  %27 = getelementptr inbounds nuw i8, ptr %26, i64 24
  %28 = call i32 (i32, i32, ptr, ...) @phpdbg_print(i32 noundef 1, i32 noundef %24, ptr noundef nonnull @.str.29, ptr noundef nonnull %27, ptr noundef nonnull %1) #11
  br label %phpdbg_print_opcodes_method_ce.exit

29:                                               ; preds = %19
  %30 = load ptr, ptr %22, align 8, !tbaa !61, !nonnull !58, !noundef !58
  call fastcc void @phpdbg_print_function_helper(ptr noundef nonnull %30)
  br label %phpdbg_print_opcodes_method_ce.exit

phpdbg_print_opcodes_method_ce.exit:              ; preds = %29, %23, %13, %7
  call void @llvm.lifetime.end.p0(i64 8, ptr nonnull %3) #11
  ret void
}